target datalayout = "e-m:e-p270:32:32-p271:32:32-p272:64:64-i64:64-i128:128-f80:128-n8:16:32:64-S128"
target triple = "x86_64-pc-linux-gnu"

%struct.H5O_obj_class_t = type { i32, ptr, ptr, ptr, ptr, ptr, ptr, ptr, ptr, ptr }

@.str.4 = private unnamed_addr constant [100 x i8] c"generated/home/dtcxzyw/WorkSpace/Projects/compilers/llvm-opt-benchmark/bench/hdf5/hdf5/src/H5Oint.c\00", align 1
@H5E_OHDR_g = external global i64, align 8
@H5E_BADTYPE_g = external global i64, align 8
@H5E_CANTGET_g = external global i64, align 8
@H5O_OBJ_GROUP = external constant [1 x %struct.H5O_obj_class_t], align 16
@__func__.H5O_get_loc = private unnamed_addr constant [12 x i8] c"H5O_get_loc\00", align 1
@.str.59 = private unnamed_addr constant [44 x i8] c"unable to get object location from group ID\00", align 1
@H5O_OBJ_DATASET = external constant [1 x %struct.H5O_obj_class_t], align 16
@.str.60 = private unnamed_addr constant [46 x i8] c"unable to get object location from dataset ID\00", align 1
@H5O_OBJ_DATATYPE = external constant [1 x %struct.H5O_obj_class_t], align 16
@.str.61 = private unnamed_addr constant [47 x i8] c"unable to get object location from datatype ID\00", align 1
@.str.62 = private unnamed_addr constant [43 x i8] c"maps not supported in native VOL connector\00", align 1
@.str.63 = private unnamed_addr constant [20 x i8] c"invalid object type\00", align 1

; Function Attrs: nounwind uwtable
define ptr @H5O_get_loc(i64 noundef %0) #0 {
  %2 = alloca i64, align 8
  %3 = alloca ptr, align 8
  %4 = alloca i8, align 1
  store i64 %0, ptr %2, align 8
  store ptr null, ptr %3, align 8
  store i8 0, ptr %4, align 1
  %5 = load i64, ptr %2, align 8
  %6 = call i32 @H5I_get_type(i64 noundef %5)
  switch i32 %6, label %86 [
    i32 2, label %7
    i32 5, label %28
    i32 3, label %49
    i32 6, label %70
    i32 -2, label %85
    i32 -1, label %85
    i32 1, label %85
    i32 4, label %85
    i32 7, label %85
    i32 8, label %85
    i32 9, label %85
    i32 10, label %85
    i32 11, label %85
    i32 12, label %85
    i32 13, label %85
    i32 14, label %85
    i32 15, label %85
    i32 16, label %85
    i32 17, label %85
  ]

7:                                                ; preds = %1
  %8 = load ptr, ptr getelementptr inbounds (%struct.H5O_obj_class_t, ptr @H5O_OBJ_GROUP, i32 0, i32 7), align 8
  %9 = load i64, ptr %2, align 8
  %10 = call ptr %8(i64 noundef %9)
  store ptr %10, ptr %3, align 8
  %11 = icmp eq ptr null, %10
  br i1 %11, label %12, label %27

12:                                               ; preds = %7
  br label %13

13:                                               ; preds = %12
  br label %14

14:                                               ; preds = %13
  br label %15

15:                                               ; preds = %14
  %16 = load i64, ptr @H5E_OHDR_g, align 8
  %17 = load i64, ptr @H5E_CANTGET_g, align 8
  %18 = call i32 (ptr, ptr, i32, i64, i64, ptr, ...) @H5E_printf_stack(ptr noundef @.str.4, ptr noundef @__func__.H5O_get_loc, i32 noundef 1721, i64 noundef %16, i64 noundef %17, ptr noundef @.str.59)
  br label %19

19:                                               ; preds = %15
  store i8 1, ptr %4, align 1
  %20 = load i8, ptr %4, align 1
  %21 = trunc i8 %20 to i1
  %22 = zext i1 %21 to i8
  store i8 %22, ptr %4, align 1
  br label %23

23:                                               ; preds = %19
  br label %24

24:                                               ; preds = %23
  store ptr null, ptr %3, align 8
  br label %102

25:                                               ; No predecessors!
  br label %26

26:                                               ; preds = %25
  br label %27

27:                                               ; preds = %26, %7
  br label %101

28:                                               ; preds = %1
  %29 = load ptr, ptr getelementptr inbounds (%struct.H5O_obj_class_t, ptr @H5O_OBJ_DATASET, i32 0, i32 7), align 8
  %30 = load i64, ptr %2, align 8
  %31 = call ptr %29(i64 noundef %30)
  store ptr %31, ptr %3, align 8
  %32 = icmp eq ptr null, %31
  br i1 %32, label %33, label %48

33:                                               ; preds = %28
  br label %34

34:                                               ; preds = %33
  br label %35

35:                                               ; preds = %34
  br label %36

36:                                               ; preds = %35
  %37 = load i64, ptr @H5E_OHDR_g, align 8
  %38 = load i64, ptr @H5E_CANTGET_g, align 8
  %39 = call i32 (ptr, ptr, i32, i64, i64, ptr, ...) @H5E_printf_stack(ptr noundef @.str.4, ptr noundef @__func__.H5O_get_loc, i32 noundef 1726, i64 noundef %37, i64 noundef %38, ptr noundef @.str.60)
  br label %40

40:                                               ; preds = %36
  store i8 1, ptr %4, align 1
  %41 = load i8, ptr %4, align 1
  %42 = trunc i8 %41 to i1
  %43 = zext i1 %42 to i8
  store i8 %43, ptr %4, align 1
  br label %44

44:                                               ; preds = %40
  br label %45

45:                                               ; preds = %44
  store ptr null, ptr %3, align 8
  br label %102

46:                                               ; No predecessors!
  br label %47

47:                                               ; preds = %46
  br label %48

48:                                               ; preds = %47, %28
  br label %101

49:                                               ; preds = %1
  %50 = load ptr, ptr getelementptr inbounds (%struct.H5O_obj_class_t, ptr @H5O_OBJ_DATATYPE, i32 0, i32 7), align 8
  %51 = load i64, ptr %2, align 8
  %52 = call ptr %50(i64 noundef %51)
  store ptr %52, ptr %3, align 8
  %53 = icmp eq ptr null, %52
  br i1 %53, label %54, label %69

54:                                               ; preds = %49
  br label %55

55:                                               ; preds = %54
  br label %56

56:                                               ; preds = %55
  br label %57

57:                                               ; preds = %56
  %58 = load i64, ptr @H5E_OHDR_g, align 8
  %59 = load i64, ptr @H5E_CANTGET_g, align 8
  %60 = call i32 (ptr, ptr, i32, i64, i64, ptr, ...) @H5E_printf_stack(ptr noundef @.str.4, ptr noundef @__func__.H5O_get_loc, i32 noundef 1731, i64 noundef %58, i64 noundef %59, ptr noundef @.str.61)
  br label %61

61:                                               ; preds = %57
  store i8 1, ptr %4, align 1
  %62 = load i8, ptr %4, align 1
  %63 = trunc i8 %62 to i1
  %64 = zext i1 %63 to i8
  store i8 %64, ptr %4, align 1
  br label %65

65:                                               ; preds = %61
  br label %66

66:                                               ; preds = %65
  store ptr null, ptr %3, align 8
  br label %102

67:                                               ; No predecessors!
  br label %68

68:                                               ; preds = %67
  br label %69

69:                                               ; preds = %68, %49
  br label %101

70:                                               ; preds = %1
  br label %71

71:                                               ; preds = %70
  br label %72

72:                                               ; preds = %71
  br label %73

73:                                               ; preds = %72
  %74 = load i64, ptr @H5E_OHDR_g, align 8
  %75 = load i64, ptr @H5E_BADTYPE_g, align 8
  %76 = call i32 (ptr, ptr, i32, i64, i64, ptr, ...) @H5E_printf_stack(ptr noundef @.str.4, ptr noundef @__func__.H5O_get_loc, i32 noundef 1735, i64 noundef %74, i64 noundef %75, ptr noundef @.str.62)
  br label %77

77:                                               ; preds = %73
  store i8 1, ptr %4, align 1
  %78 = load i8, ptr %4, align 1
  %79 = trunc i8 %78 to i1
  %80 = zext i1 %79 to i8
  store i8 %80, ptr %4, align 1
  br label %81

81:                                               ; preds = %77
  br label %82

82:                                               ; preds = %81
  store ptr null, ptr %3, align 8
  br label %102

83:                                               ; No predecessors!
  br label %84

84:                                               ; preds = %83
  br label %85

85:                                               ; preds = %84, %1, %1, %1, %1, %1, %1, %1, %1, %1, %1, %1, %1, %1, %1, %1
  br label %86

86:                                               ; preds = %85, %1
  br label %87

87:                                               ; preds = %86
  br label %88

88:                                               ; preds = %87
  br label %89

89:                                               ; preds = %88
  %90 = load i64, ptr @H5E_OHDR_g, align 8
  %91 = load i64, ptr @H5E_BADTYPE_g, align 8
  %92 = call i32 (ptr, ptr, i32, i64, i64, ptr, ...) @H5E_printf_stack(ptr noundef @.str.4, ptr noundef @__func__.H5O_get_loc, i32 noundef 1753, i64 noundef %90, i64 noundef %91, ptr noundef @.str.63)
  br label %93

93:                                               ; preds = %89
  store i8 1, ptr %4, align 1
  %94 = load i8, ptr %4, align 1
  %95 = trunc i8 %94 to i1
  %96 = zext i1 %95 to i8
  store i8 %96, ptr %4, align 1
  br label %97

97:                                               ; preds = %93
  br label %98

98:                                               ; preds = %97
  store ptr null, ptr %3, align 8
  br label %102

99:                                               ; No predecessors!
  br label %100

100:                                              ; preds = %99
  br label %101

101:                                              ; preds = %100, %69, %48, %27
  br label %102

102:                                              ; preds = %101, %98, %82, %66, %45, %24
  %103 = load ptr, ptr %3, align 8
  ret ptr %103
}