; Function Attrs: nounwind uwtable
define ptr @H5O_get_loc(i64 noundef %0) local_unnamed_addr #1 {
  %2 = tail call i32 @H5I_get_type(i64 noundef %0) #11
  switch i32 %2, label %31 [
    i32 2, label %3
    i32 5, label %11
    i32 3, label %19
    i32 6, label %27
  ]

3:                                                ; preds = %1
  %4 = load ptr, ptr getelementptr inbounds (i8, ptr @H5O_OBJ_GROUP, i64 56), align 8
  %5 = tail call ptr %4(i64 noundef %0) #11
  %6 = icmp eq ptr %5, null
  br i1 %6, label %7, label %35

7:                                                ; preds = %3
  %8 = load i64, ptr @H5E_OHDR_g, align 8
  %9 = load i64, ptr @H5E_CANTGET_g, align 8
  %10 = tail call i32 (ptr, ptr, i32, i64, i64, ptr, ...) @H5E_printf_stack(ptr noundef nonnull @.str.4, ptr noundef nonnull @__func__.H5O_get_loc, i32 noundef 1721, i64 noundef %8, i64 noundef %9, ptr noundef nonnull @.str.59) #11
  br label %35

11:                                               ; preds = %1
  %12 = load ptr, ptr getelementptr inbounds (i8, ptr @H5O_OBJ_DATASET, i64 56), align 8
  %13 = tail call ptr %12(i64 noundef %0) #11
  %14 = icmp eq ptr %13, null
  br i1 %14, label %15, label %35

15:                                               ; preds = %11
  %16 = load i64, ptr @H5E_OHDR_g, align 8
  %17 = load i64, ptr @H5E_CANTGET_g, align 8
  %18 = tail call i32 (ptr, ptr, i32, i64, i64, ptr, ...) @H5E_printf_stack(ptr noundef nonnull @.str.4, ptr noundef nonnull @__func__.H5O_get_loc, i32 noundef 1726, i64 noundef %16, i64 noundef %17, ptr noundef nonnull @.str.60) #11
  br label %35

19:                                               ; preds = %1
  %20 = load ptr, ptr getelementptr inbounds (i8, ptr @H5O_OBJ_DATATYPE, i64 56), align 8
  %21 = tail call ptr %20(i64 noundef %0) #11
  %22 = icmp eq ptr %21, null
  br i1 %22, label %23, label %35

23:                                               ; preds = %19
  %24 = load i64, ptr @H5E_OHDR_g, align 8
  %25 = load i64, ptr @H5E_CANTGET_g, align 8
  %26 = tail call i32 (ptr, ptr, i32, i64, i64, ptr, ...) @H5E_printf_stack(ptr noundef nonnull @.str.4, ptr noundef nonnull @__func__.H5O_get_loc, i32 noundef 1731, i64 noundef %24, i64 noundef %25, ptr noundef nonnull @.str.61) #11
  br label %35

27:                                               ; preds = %1
  %28 = load i64, ptr @H5E_OHDR_g, align 8
  %29 = load i64, ptr @H5E_BADTYPE_g, align 8
  %30 = tail call i32 (ptr, ptr, i32, i64, i64, ptr, ...) @H5E_printf_stack(ptr noundef nonnull @.str.4, ptr noundef nonnull @__func__.H5O_get_loc, i32 noundef 1735, i64 noundef %28, i64 noundef %29, ptr noundef nonnull @.str.62) #11
  br label %35

31:                                               ; preds = %1
  %32 = load i64, ptr @H5E_OHDR_g, align 8
  %33 = load i64, ptr @H5E_BADTYPE_g, align 8
  %34 = tail call i32 (ptr, ptr, i32, i64, i64, ptr, ...) @H5E_printf_stack(ptr noundef nonnull @.str.4, ptr noundef nonnull @__func__.H5O_get_loc, i32 noundef 1753, i64 noundef %32, i64 noundef %33, ptr noundef nonnull @.str.63) #11
  br label %35

35:                                               ; preds = %3, %11, %19, %31, %27, %23, %15, %7
  %.0 = phi ptr [ null, %31 ], [ null, %27 ], [ null, %23 ], [ %21, %19 ], [ null, %15 ], [ %13, %11 ], [ null, %7 ], [ %5, %3 ]
  ret ptr %.0
}